target datalayout = "e-m:e-p270:32:32-p271:32:32-p272:64:64-i64:64-i128:128-f80:128-n8:16:32:64-S128"
target triple = "x86_64-pc-linux-gnu"

%struct.nghttp2_hd_deflater = type { %struct.nghttp2_hd_context, %struct.nghttp2_hd_map, i64, i64, i8 }
%struct.nghttp2_hd_context = type { %struct.nghttp2_hd_ringbuf, ptr, i64, i64, i32, i8 }
%struct.nghttp2_hd_ringbuf = type { ptr, i64, i64, i64 }
%struct.nghttp2_hd_map = type { [128 x ptr] }

; Function Attrs: inlinehint nounwind uwtable
define internal i64 @nghttp2_min_size(i64 noundef %0, i64 noundef %1) #4 {
  %3 = alloca i64, align 8
  %4 = alloca i64, align 8
  store i64 %0, ptr %3, align 8, !tbaa !37
  store i64 %1, ptr %4, align 8, !tbaa !37
  %5 = load i64, ptr %3, align 8, !tbaa !37
  %6 = load i64, ptr %4, align 8, !tbaa !37
  %7 = icmp ult i64 %5, %6
  br i1 %7, label %8, label %10

8:                                                ; preds = %2
  %9 = load i64, ptr %3, align 8, !tbaa !37
  br label %12

10:                                               ; preds = %2
  %11 = load i64, ptr %4, align 8, !tbaa !37
  br label %12

12:                                               ; preds = %10, %8
  %13 = phi i64 [ %9, %8 ], [ %11, %10 ]
  ret i64 %13
}

; Function Attrs: nounwind uwtable
define i32 @nghttp2_hd_deflate_change_table_size(ptr noundef %0, i64 noundef %1) #0 {
  %3 = alloca ptr, align 8
  %4 = alloca i64, align 8
  %5 = alloca i64, align 8
  store ptr %0, ptr %3, align 8, !tbaa !35
  store i64 %1, ptr %4, align 8, !tbaa !37
  call void @llvm.lifetime.start.p0(i64 8, ptr %5) #8
  %6 = load i64, ptr %4, align 8, !tbaa !37
  %7 = load ptr, ptr %3, align 8, !tbaa !35
  %8 = getelementptr inbounds nuw %struct.nghttp2_hd_deflater, ptr %7, i32 0, i32 2
  %9 = load i64, ptr %8, align 8, !tbaa !46
  %10 = call i64 @nghttp2_min_size(i64 noundef %6, i64 noundef %9)
  store i64 %10, ptr %5, align 8, !tbaa !37
  %11 = load i64, ptr %5, align 8, !tbaa !37
  %12 = load ptr, ptr %3, align 8, !tbaa !35
  %13 = getelementptr inbounds nuw %struct.nghttp2_hd_deflater, ptr %12, i32 0, i32 0
  %14 = getelementptr inbounds nuw %struct.nghttp2_hd_context, ptr %13, i32 0, i32 3
  store i64 %11, ptr %14, align 8, !tbaa !45
  %15 = load ptr, ptr %3, align 8, !tbaa !35
  %16 = getelementptr inbounds nuw %struct.nghttp2_hd_deflater, ptr %15, i32 0, i32 3
  %17 = load i64, ptr %16, align 8, !tbaa !47
  %18 = load i64, ptr %5, align 8, !tbaa !37
  %19 = call i64 @nghttp2_min_size(i64 noundef %17, i64 noundef %18)
  %20 = load ptr, ptr %3, align 8, !tbaa !35
  %21 = getelementptr inbounds nuw %struct.nghttp2_hd_deflater, ptr %20, i32 0, i32 3
  store i64 %19, ptr %21, align 8, !tbaa !47
  %22 = load ptr, ptr %3, align 8, !tbaa !35
  %23 = getelementptr inbounds nuw %struct.nghttp2_hd_deflater, ptr %22, i32 0, i32 4
  store i8 1, ptr %23, align 8, !tbaa !38
  %24 = load ptr, ptr %3, align 8, !tbaa !35
  %25 = getelementptr inbounds nuw %struct.nghttp2_hd_deflater, ptr %24, i32 0, i32 0
  %26 = load ptr, ptr %3, align 8, !tbaa !35
  %27 = getelementptr inbounds nuw %struct.nghttp2_hd_deflater, ptr %26, i32 0, i32 1
  call void @hd_context_shrink_table_size(ptr noundef %25, ptr noundef %27)
  call void @llvm.lifetime.end.p0(i64 8, ptr %5) #8
  ret i32 0
}