; Function Attrs: nounwind uwtable
define noundef i32 @nghttp2_hd_deflate_change_table_size(ptr noundef initializes((48, 56), (1104, 1105)) %0, i64 noundef %1) local_unnamed_addr #0 {
  %3 = getelementptr inbounds nuw i8, ptr %0, i64 1088
  %4 = load i64, ptr %3, align 8, !tbaa !47
  %5 = tail call noundef i64 @llvm.umin.i64(i64 %1, i64 %4)
  %6 = getelementptr inbounds nuw i8, ptr %0, i64 48
  store i64 %5, ptr %6, align 8, !tbaa !49
  %7 = getelementptr inbounds nuw i8, ptr %0, i64 1096
  %8 = load i64, ptr %7, align 8, !tbaa !48
  %9 = tail call noundef i64 @llvm.umin.i64(i64 %8, i64 %5)
  store i64 %9, ptr %7, align 8, !tbaa !48
  %10 = getelementptr inbounds nuw i8, ptr %0, i64 1104
  store i8 1, ptr %10, align 8, !tbaa !44
  %11 = getelementptr inbounds nuw i8, ptr %0, i64 64
  tail call fastcc void @hd_context_shrink_table_size(ptr noundef %0, ptr noundef nonnull %11)
  ret i32 0
}